target datalayout = "e-m:e-p270:32:32-p271:32:32-p272:64:64-i64:64-i128:128-f80:128-n8:16:32:64-S128"
target triple = "x86_64-pc-linux-gnu"

%struct.dt_masks_form_t = type { ptr, i32, ptr, [2 x float], [128 x i8], i32, i32 }
%struct._GList = type { ptr, ptr, ptr }
%struct.dt_masks_point_gradient_t = type { [2 x float], float, float, float, float, i32 }

@.str = private unnamed_addr constant [42 x i8] c"plugins/darkroom/spots/gradient_curvature\00", align 1
@.str.1 = private unnamed_addr constant [42 x i8] c"plugins/darkroom/masks/gradient/curvature\00", align 1
@.str.11 = private unnamed_addr constant [44 x i8] c"plugins/darkroom/spots/gradient_compression\00", align 1
@.str.12 = private unnamed_addr constant [44 x i8] c"plugins/darkroom/masks/gradient/compression\00", align 1
@.str.13 = private unnamed_addr constant [41 x i8] c"plugins/darkroom/spots/gradient_rotation\00", align 1
@.str.14 = private unnamed_addr constant [41 x i8] c"plugins/darkroom/masks/gradient/rotation\00", align 1

; Function Attrs: nounwind uwtable
define internal void @_gradient_modify_property(ptr noundef %0, i32 noundef %1, float noundef %2, float noundef %3, ptr noundef %4, ptr noundef %5, ptr noundef %6, ptr noundef %7) #0 {
  %9 = alloca ptr, align 8
  %10 = alloca i32, align 4
  %11 = alloca float, align 4
  %12 = alloca float, align 4
  %13 = alloca ptr, align 8
  %14 = alloca ptr, align 8
  %15 = alloca ptr, align 8
  %16 = alloca ptr, align 8
  %17 = alloca ptr, align 8
  %18 = alloca float, align 4
  %19 = alloca float, align 4
  %20 = alloca float, align 4
  %21 = alloca float, align 4
  store ptr %0, ptr %9, align 8, !tbaa !10
  store i32 %1, ptr %10, align 4, !tbaa !6
  store float %2, ptr %11, align 4, !tbaa !29
  store float %3, ptr %12, align 4, !tbaa !29
  store ptr %4, ptr %13, align 8, !tbaa !30
  store ptr %5, ptr %14, align 8, !tbaa !32
  store ptr %6, ptr %15, align 8, !tbaa !30
  store ptr %7, ptr %16, align 8, !tbaa !30
  call void @llvm.lifetime.start.p0(i64 8, ptr %17) #11
  %22 = load ptr, ptr %9, align 8, !tbaa !10
  %23 = getelementptr inbounds nuw %struct.dt_masks_form_t, ptr %22, i32 0, i32 0
  %24 = load ptr, ptr %23, align 8, !tbaa !34
  %25 = icmp ne ptr %24, null
  br i1 %25, label %26, label %32

26:                                               ; preds = %8
  %27 = load ptr, ptr %9, align 8, !tbaa !10
  %28 = getelementptr inbounds nuw %struct.dt_masks_form_t, ptr %27, i32 0, i32 0
  %29 = load ptr, ptr %28, align 8, !tbaa !34
  %30 = getelementptr inbounds nuw %struct._GList, ptr %29, i32 0, i32 0
  %31 = load ptr, ptr %30, align 8, !tbaa !37
  br label %33

32:                                               ; preds = %8
  br label %33

33:                                               ; preds = %32, %26
  %34 = phi ptr [ %31, %26 ], [ null, %32 ]
  store ptr %34, ptr %17, align 8, !tbaa !39
  %35 = load i32, ptr %10, align 4, !tbaa !6
  switch i32 %35, label %248 [
    i32 5, label %36
    i32 6, label %121
    i32 4, label %202
  ]

36:                                               ; preds = %33
  %37 = load ptr, ptr %17, align 8, !tbaa !39
  %38 = icmp ne ptr %37, null
  br i1 %38, label %39, label %43

39:                                               ; preds = %36
  %40 = load ptr, ptr %17, align 8, !tbaa !39
  %41 = getelementptr inbounds nuw %struct.dt_masks_point_gradient_t, ptr %40, i32 0, i32 4
  %42 = load float, ptr %41, align 4, !tbaa !41
  br label %51

43:                                               ; preds = %36
  %44 = load ptr, ptr %9, align 8, !tbaa !10
  %45 = getelementptr inbounds nuw %struct.dt_masks_form_t, ptr %44, i32 0, i32 1
  %46 = load i32, ptr %45, align 8, !tbaa !43
  %47 = and i32 %46, 136
  %48 = icmp ne i32 %47, 0
  %49 = select i1 %48, ptr @.str, ptr @.str.1
  %50 = call reassoc nsz arcp contract afn float @dt_conf_get_float(ptr noundef %49)
  br label %51

51:                                               ; preds = %43, %39
  %52 = phi reassoc nsz arcp contract afn float [ %42, %39 ], [ %50, %43 ]
  store float %52, ptr %18, align 4, !tbaa !29
  %53 = load float, ptr %18, align 4, !tbaa !29
  %54 = load float, ptr %12, align 4, !tbaa !29
  %55 = fadd reassoc nsz arcp contract afn float %53, %54
  %56 = load float, ptr %11, align 4, !tbaa !29
  %57 = fsub reassoc nsz arcp contract afn float %55, %56
  %58 = fcmp reassoc nsz arcp contract afn ogt float %57, 2.000000e+00
  br i1 %58, label %59, label %60

59:                                               ; preds = %51
  br label %76

60:                                               ; preds = %51
  %61 = load float, ptr %18, align 4, !tbaa !29
  %62 = load float, ptr %12, align 4, !tbaa !29
  %63 = fadd reassoc nsz arcp contract afn float %61, %62
  %64 = load float, ptr %11, align 4, !tbaa !29
  %65 = fsub reassoc nsz arcp contract afn float %63, %64
  %66 = fcmp reassoc nsz arcp contract afn olt float %65, -2.000000e+00
  br i1 %66, label %67, label %68

67:                                               ; preds = %60
  br label %74

68:                                               ; preds = %60
  %69 = load float, ptr %18, align 4, !tbaa !29
  %70 = load float, ptr %12, align 4, !tbaa !29
  %71 = fadd reassoc nsz arcp contract afn float %69, %70
  %72 = load float, ptr %11, align 4, !tbaa !29
  %73 = fsub reassoc nsz arcp contract afn float %71, %72
  br label %74

74:                                               ; preds = %68, %67
  %75 = phi reassoc nsz arcp contract afn float [ -2.000000e+00, %67 ], [ %73, %68 ]
  br label %76

76:                                               ; preds = %74, %59
  %77 = phi reassoc nsz arcp contract afn float [ 2.000000e+00, %59 ], [ %75, %74 ]
  store float %77, ptr %18, align 4, !tbaa !29
  %78 = load ptr, ptr %17, align 8, !tbaa !39
  %79 = icmp ne ptr %78, null
  br i1 %79, label %80, label %84

80:                                               ; preds = %76
  %81 = load float, ptr %18, align 4, !tbaa !29
  %82 = load ptr, ptr %17, align 8, !tbaa !39
  %83 = getelementptr inbounds nuw %struct.dt_masks_point_gradient_t, ptr %82, i32 0, i32 4
  store float %81, ptr %83, align 4, !tbaa !41
  br label %84

84:                                               ; preds = %80, %76
  %85 = load ptr, ptr %9, align 8, !tbaa !10
  %86 = getelementptr inbounds nuw %struct.dt_masks_form_t, ptr %85, i32 0, i32 1
  %87 = load i32, ptr %86, align 8, !tbaa !43
  %88 = and i32 %87, 136
  %89 = icmp ne i32 %88, 0
  %90 = select i1 %89, ptr @.str, ptr @.str.1
  %91 = load float, ptr %18, align 4, !tbaa !29
  call void @dt_conf_set_float(ptr noundef %90, float noundef %91)
  %92 = load float, ptr %18, align 4, !tbaa !29
  %93 = fpext reassoc nsz arcp contract afn float %92 to double
  %94 = fmul reassoc nsz arcp contract afn double %93, 5.000000e-01
  %95 = load ptr, ptr %13, align 8, !tbaa !30
  %96 = load float, ptr %95, align 4, !tbaa !29
  %97 = fpext reassoc nsz arcp contract afn float %96 to double
  %98 = fadd reassoc nsz arcp contract afn double %97, %94
  %99 = fptrunc reassoc nsz arcp contract afn double %98 to float
  store float %99, ptr %95, align 4, !tbaa !29
  %100 = load ptr, ptr %16, align 8, !tbaa !30
  %101 = load float, ptr %100, align 4, !tbaa !29
  %102 = load float, ptr %18, align 4, !tbaa !29
  %103 = fpext reassoc nsz arcp contract afn float %102 to double
  %104 = fmul reassoc nsz arcp contract afn double 5.000000e-01, %103
  %105 = fsub reassoc nsz arcp contract afn double 1.000000e+00, %104
  %106 = fptrunc reassoc nsz arcp contract afn double %105 to float
  %107 = call reassoc nsz arcp contract afn float @llvm.minnum.f32(float %101, float %106)
  %108 = load ptr, ptr %16, align 8, !tbaa !30
  store float %107, ptr %108, align 4, !tbaa !29
  %109 = load ptr, ptr %15, align 8, !tbaa !30
  %110 = load float, ptr %109, align 4, !tbaa !29
  %111 = load float, ptr %18, align 4, !tbaa !29
  %112 = fpext reassoc nsz arcp contract afn float %111 to double
  %113 = fmul reassoc nsz arcp contract afn double 5.000000e-01, %112
  %114 = fsub reassoc nsz arcp contract afn double -1.000000e+00, %113
  %115 = fptrunc reassoc nsz arcp contract afn double %114 to float
  %116 = call reassoc nsz arcp contract afn float @llvm.maxnum.f32(float %110, float %115)
  %117 = load ptr, ptr %15, align 8, !tbaa !30
  store float %116, ptr %117, align 4, !tbaa !29
  %118 = load ptr, ptr %14, align 8, !tbaa !32
  %119 = load i32, ptr %118, align 4, !tbaa !6
  %120 = add nsw i32 %119, 1
  store i32 %120, ptr %118, align 4, !tbaa !6
  br label %249

121:                                              ; preds = %33
  %122 = load float, ptr %11, align 4, !tbaa !29
  %123 = fcmp reassoc nsz arcp contract afn une float %122, 0.000000e+00
  br i1 %123, label %124, label %127

124:                                              ; preds = %121
  %125 = load float, ptr %12, align 4, !tbaa !29
  %126 = fcmp reassoc nsz arcp contract afn une float %125, 0.000000e+00
  br i1 %126, label %128, label %127

127:                                              ; preds = %124, %121
  br label %132

128:                                              ; preds = %124
  %129 = load float, ptr %12, align 4, !tbaa !29
  %130 = load float, ptr %11, align 4, !tbaa !29
  %131 = fdiv reassoc nsz arcp contract afn float %129, %130
  br label %132

132:                                              ; preds = %128, %127
  %133 = phi reassoc nsz arcp contract afn float [ 1.000000e+00, %127 ], [ %131, %128 ]
  store float %133, ptr %19, align 4, !tbaa !29
  %134 = load ptr, ptr %17, align 8, !tbaa !39
  %135 = icmp ne ptr %134, null
  br i1 %135, label %136, label %140

136:                                              ; preds = %132
  %137 = load ptr, ptr %17, align 8, !tbaa !39
  %138 = getelementptr inbounds nuw %struct.dt_masks_point_gradient_t, ptr %137, i32 0, i32 2
  %139 = load float, ptr %138, align 4, !tbaa !44
  br label %148

140:                                              ; preds = %132
  %141 = load ptr, ptr %9, align 8, !tbaa !10
  %142 = getelementptr inbounds nuw %struct.dt_masks_form_t, ptr %141, i32 0, i32 1
  %143 = load i32, ptr %142, align 8, !tbaa !43
  %144 = and i32 %143, 136
  %145 = icmp ne i32 %144, 0
  %146 = select i1 %145, ptr @.str.11, ptr @.str.12
  %147 = call reassoc nsz arcp contract afn float @dt_conf_get_float(ptr noundef %146)
  br label %148

148:                                              ; preds = %140, %136
  %149 = phi reassoc nsz arcp contract afn float [ %139, %136 ], [ %147, %140 ]
  store float %149, ptr %20, align 4, !tbaa !29
  %150 = load float, ptr %20, align 4, !tbaa !29
  %151 = load float, ptr %19, align 4, !tbaa !29
  %152 = fmul reassoc nsz arcp contract afn float %150, %151
  %153 = fcmp reassoc nsz arcp contract afn ogt float %152, 1.000000e+00
  br i1 %153, label %154, label %155

154:                                              ; preds = %148
  br label %167

155:                                              ; preds = %148
  %156 = load float, ptr %20, align 4, !tbaa !29
  %157 = load float, ptr %19, align 4, !tbaa !29
  %158 = fmul reassoc nsz arcp contract afn float %156, %157
  %159 = fcmp reassoc nsz arcp contract afn olt float %158, 0x3F50624DE0000000
  br i1 %159, label %160, label %161

160:                                              ; preds = %155
  br label %165

161:                                              ; preds = %155
  %162 = load float, ptr %20, align 4, !tbaa !29
  %163 = load float, ptr %19, align 4, !tbaa !29
  %164 = fmul reassoc nsz arcp contract afn float %162, %163
  br label %165

165:                                              ; preds = %161, %160
  %166 = phi reassoc nsz arcp contract afn float [ 0x3F50624DE0000000, %160 ], [ %164, %161 ]
  br label %167

167:                                              ; preds = %165, %154
  %168 = phi reassoc nsz arcp contract afn float [ 1.000000e+00, %154 ], [ %166, %165 ]
  store float %168, ptr %20, align 4, !tbaa !29
  %169 = load ptr, ptr %17, align 8, !tbaa !39
  %170 = icmp ne ptr %169, null
  br i1 %170, label %171, label %175

171:                                              ; preds = %167
  %172 = load float, ptr %20, align 4, !tbaa !29
  %173 = load ptr, ptr %17, align 8, !tbaa !39
  %174 = getelementptr inbounds nuw %struct.dt_masks_point_gradient_t, ptr %173, i32 0, i32 2
  store float %172, ptr %174, align 4, !tbaa !44
  br label %175

175:                                              ; preds = %171, %167
  %176 = load ptr, ptr %9, align 8, !tbaa !10
  %177 = getelementptr inbounds nuw %struct.dt_masks_form_t, ptr %176, i32 0, i32 1
  %178 = load i32, ptr %177, align 8, !tbaa !43
  %179 = and i32 %178, 136
  %180 = icmp ne i32 %179, 0
  %181 = select i1 %180, ptr @.str.11, ptr @.str.12
  %182 = load float, ptr %20, align 4, !tbaa !29
  call void @dt_conf_set_float(ptr noundef %181, float noundef %182)
  %183 = load float, ptr %20, align 4, !tbaa !29
  %184 = load ptr, ptr %13, align 8, !tbaa !30
  %185 = load float, ptr %184, align 4, !tbaa !29
  %186 = fadd reassoc nsz arcp contract afn float %185, %183
  store float %186, ptr %184, align 4, !tbaa !29
  %187 = load ptr, ptr %16, align 8, !tbaa !30
  %188 = load float, ptr %187, align 4, !tbaa !29
  %189 = load float, ptr %20, align 4, !tbaa !29
  %190 = fdiv reassoc nsz arcp contract afn float 1.000000e+00, %189
  %191 = call reassoc nsz arcp contract afn float @llvm.minnum.f32(float %188, float %190)
  %192 = load ptr, ptr %16, align 8, !tbaa !30
  store float %191, ptr %192, align 4, !tbaa !29
  %193 = load ptr, ptr %15, align 8, !tbaa !30
  %194 = load float, ptr %193, align 4, !tbaa !29
  %195 = load float, ptr %20, align 4, !tbaa !29
  %196 = fdiv reassoc nsz arcp contract afn float 0x3F40624DE0000000, %195
  %197 = call reassoc nsz arcp contract afn float @llvm.maxnum.f32(float %194, float %196)
  %198 = load ptr, ptr %15, align 8, !tbaa !30
  store float %197, ptr %198, align 4, !tbaa !29
  %199 = load ptr, ptr %14, align 8, !tbaa !32
  %200 = load i32, ptr %199, align 4, !tbaa !6
  %201 = add nsw i32 %200, 1
  store i32 %201, ptr %199, align 4, !tbaa !6
  br label %249

202:                                              ; preds = %33
  %203 = load ptr, ptr %17, align 8, !tbaa !39
  %204 = icmp ne ptr %203, null
  br i1 %204, label %205, label %209

205:                                              ; preds = %202
  %206 = load ptr, ptr %17, align 8, !tbaa !39
  %207 = getelementptr inbounds nuw %struct.dt_masks_point_gradient_t, ptr %206, i32 0, i32 1
  %208 = load float, ptr %207, align 4, !tbaa !45
  br label %217

209:                                              ; preds = %202
  %210 = load ptr, ptr %9, align 8, !tbaa !10
  %211 = getelementptr inbounds nuw %struct.dt_masks_form_t, ptr %210, i32 0, i32 1
  %212 = load i32, ptr %211, align 8, !tbaa !43
  %213 = and i32 %212, 136
  %214 = icmp ne i32 %213, 0
  %215 = select i1 %214, ptr @.str.13, ptr @.str.14
  %216 = call reassoc nsz arcp contract afn float @dt_conf_get_float(ptr noundef %215)
  br label %217

217:                                              ; preds = %209, %205
  %218 = phi reassoc nsz arcp contract afn float [ %208, %205 ], [ %216, %209 ]
  store float %218, ptr %21, align 4, !tbaa !29
  %219 = load float, ptr %21, align 4, !tbaa !29
  %220 = load float, ptr %12, align 4, !tbaa !29
  %221 = fsub reassoc nsz arcp contract afn float %219, %220
  %222 = load float, ptr %11, align 4, !tbaa !29
  %223 = fadd reassoc nsz arcp contract afn float %221, %222
  %224 = fadd reassoc nsz arcp contract afn float %223, 3.600000e+02
  %225 = frem reassoc nsz arcp contract afn float %224, 3.600000e+02
  store float %225, ptr %21, align 4, !tbaa !29
  %226 = load ptr, ptr %17, align 8, !tbaa !39
  %227 = icmp ne ptr %226, null
  br i1 %227, label %228, label %232

228:                                              ; preds = %217
  %229 = load float, ptr %21, align 4, !tbaa !29
  %230 = load ptr, ptr %17, align 8, !tbaa !39
  %231 = getelementptr inbounds nuw %struct.dt_masks_point_gradient_t, ptr %230, i32 0, i32 1
  store float %229, ptr %231, align 4, !tbaa !45
  br label %232

232:                                              ; preds = %228, %217
  %233 = load ptr, ptr %9, align 8, !tbaa !10
  %234 = getelementptr inbounds nuw %struct.dt_masks_form_t, ptr %233, i32 0, i32 1
  %235 = load i32, ptr %234, align 8, !tbaa !43
  %236 = and i32 %235, 136
  %237 = icmp ne i32 %236, 0
  %238 = select i1 %237, ptr @.str.13, ptr @.str.14
  %239 = load float, ptr %21, align 4, !tbaa !29
  call void @dt_conf_set_float(ptr noundef %238, float noundef %239)
  %240 = load float, ptr %21, align 4, !tbaa !29
  %241 = fsub reassoc nsz arcp contract afn float 3.600000e+02, %240
  %242 = load ptr, ptr %13, align 8, !tbaa !30
  %243 = load float, ptr %242, align 4, !tbaa !29
  %244 = fadd reassoc nsz arcp contract afn float %243, %241
  store float %244, ptr %242, align 4, !tbaa !29
  %245 = load ptr, ptr %14, align 8, !tbaa !32
  %246 = load i32, ptr %245, align 4, !tbaa !6
  %247 = add nsw i32 %246, 1
  store i32 %247, ptr %245, align 4, !tbaa !6
  br label %249

248:                                              ; preds = %33
  br label %249

249:                                              ; preds = %248, %232, %175, %84
  call void @llvm.lifetime.end.p0(i64 8, ptr %17) #11
  ret void
}