; Function Attrs: nounwind uwtable
define internal void @_gradient_modify_property(ptr noundef readonly captures(none) %0, i32 noundef %1, float noundef %2, float noundef %3, ptr noundef captures(none) %4, ptr noundef captures(none) %5, ptr noundef captures(none) %6, ptr noundef captures(none) %7) #0 {
  %9 = load ptr, ptr %0, align 8, !tbaa !19
  %.not = icmp eq ptr %9, null
  br i1 %.not, label %12, label %10

10:                                               ; preds = %8
  %11 = load ptr, ptr %9, align 8, !tbaa !22
  br label %12

12:                                               ; preds = %8, %10
  %13 = phi ptr [ %11, %10 ], [ null, %8 ]
  switch i32 %1, label %120 [
    i32 5, label %14
    i32 6, label %55
    i32 4, label %92
  ]

14:                                               ; preds = %12
  %.not79 = icmp eq ptr %13, null
  br i1 %.not79, label %18, label %15

15:                                               ; preds = %14
  %16 = getelementptr inbounds nuw i8, ptr %13, i64 20
  %17 = load float, ptr %16, align 4, !tbaa !24
  br label %24

18:                                               ; preds = %14
  %19 = getelementptr inbounds nuw i8, ptr %0, i64 8
  %20 = load i32, ptr %19, align 8, !tbaa !26
  %21 = and i32 %20, 136
  %.not80 = icmp eq i32 %21, 0
  %22 = select i1 %.not80, ptr @.str.1, ptr @.str
  %23 = tail call reassoc nsz arcp contract afn float @dt_conf_get_float(ptr noundef nonnull %22) #13
  br label %24

24:                                               ; preds = %18, %15
  %25 = phi reassoc nsz arcp contract afn float [ %17, %15 ], [ %23, %18 ]
  %26 = fsub reassoc nsz arcp contract afn float %3, %2
  %27 = fadd reassoc nsz arcp contract afn float %26, %25
  %28 = fcmp reassoc nsz arcp contract afn ogt float %27, 2.000000e+00
  br i1 %28, label %32, label %29

29:                                               ; preds = %24
  %30 = fcmp reassoc nsz arcp contract afn olt float %27, -2.000000e+00
  br i1 %30, label %32, label %31

31:                                               ; preds = %29
  br label %32

32:                                               ; preds = %31, %29, %24
  %33 = phi reassoc nsz arcp contract afn float [ 2.000000e+00, %24 ], [ %27, %31 ], [ -2.000000e+00, %29 ]
  br i1 %.not79, label %36, label %34

34:                                               ; preds = %32
  %35 = getelementptr inbounds nuw i8, ptr %13, i64 20
  store float %33, ptr %35, align 4, !tbaa !24
  br label %36

36:                                               ; preds = %34, %32
  %37 = getelementptr inbounds nuw i8, ptr %0, i64 8
  %38 = load i32, ptr %37, align 8, !tbaa !26
  %39 = and i32 %38, 136
  %.not81 = icmp eq i32 %39, 0
  %40 = select i1 %.not81, ptr @.str.1, ptr @.str
  tail call void @dt_conf_set_float(ptr noundef nonnull %40, float noundef %33) #13
  %41 = fpext reassoc nsz arcp contract afn float %33 to double
  %42 = fmul reassoc nsz arcp contract afn double %41, 5.000000e-01
  %43 = load float, ptr %4, align 4, !tbaa !27
  %44 = fpext reassoc nsz arcp contract afn float %43 to double
  %45 = fadd reassoc nsz arcp contract afn double %42, %44
  %46 = fptrunc reassoc nsz arcp contract afn double %45 to float
  store float %46, ptr %4, align 4, !tbaa !27
  %47 = load float, ptr %7, align 4, !tbaa !27
  %48 = fsub reassoc nsz arcp contract afn double 1.000000e+00, %42
  %49 = fptrunc reassoc nsz arcp contract afn double %48 to float
  %50 = tail call reassoc nsz arcp contract afn float @llvm.minnum.f32(float %47, float %49)
  store float %50, ptr %7, align 4, !tbaa !27
  %51 = load float, ptr %6, align 4, !tbaa !27
  %52 = fsub reassoc nsz arcp contract afn double -1.000000e+00, %42
  %53 = fptrunc reassoc nsz arcp contract afn double %52 to float
  %54 = tail call reassoc nsz arcp contract afn float @llvm.maxnum.f32(float %51, float %53)
  store float %54, ptr %6, align 4, !tbaa !27
  br label %.sink.split

55:                                               ; preds = %12
  %56 = fcmp reassoc nsz arcp contract afn une float %2, 0.000000e+00
  %57 = fcmp reassoc nsz arcp contract afn une float %3, 0.000000e+00
  %or.cond = and i1 %56, %57
  %58 = fdiv reassoc nsz arcp contract afn float %3, %2
  %59 = select reassoc nsz arcp contract afn i1 %or.cond, float %58, float 1.000000e+00
  %.not76 = icmp eq ptr %13, null
  br i1 %.not76, label %.thread, label %70

.thread:                                          ; preds = %55
  %60 = getelementptr inbounds nuw i8, ptr %0, i64 8
  %61 = load i32, ptr %60, align 8, !tbaa !26
  %62 = and i32 %61, 136
  %.not77 = icmp eq i32 %62, 0
  %63 = select i1 %.not77, ptr @.str.12, ptr @.str.11
  %64 = tail call reassoc nsz arcp contract afn float @dt_conf_get_float(ptr noundef nonnull %63) #13
  %65 = fmul reassoc nsz arcp contract afn float %64, %59
  %66 = fcmp reassoc nsz arcp contract afn ogt float %65, 1.000000e+00
  %67 = fcmp reassoc nsz arcp contract afn olt float %65, 0x3F50624DE0000000
  %68 = select reassoc nsz arcp contract afn i1 %67, float 0x3F50624DE0000000, float %65
  %69 = select reassoc nsz arcp contract afn i1 %66, float 1.000000e+00, float %68
  br label %78

70:                                               ; preds = %55
  %71 = getelementptr inbounds nuw i8, ptr %13, i64 12
  %72 = load float, ptr %71, align 4, !tbaa !28
  %73 = fmul reassoc nsz arcp contract afn float %72, %59
  %74 = fcmp reassoc nsz arcp contract afn ogt float %73, 1.000000e+00
  %75 = fcmp reassoc nsz arcp contract afn olt float %73, 0x3F50624DE0000000
  %76 = select reassoc nsz arcp contract afn i1 %75, float 0x3F50624DE0000000, float %73
  %77 = select reassoc nsz arcp contract afn i1 %74, float 1.000000e+00, float %76
  store float %77, ptr %71, align 4, !tbaa !28
  br label %78

78:                                               ; preds = %.thread, %70
  %79 = phi float [ %69, %.thread ], [ %77, %70 ]
  %80 = getelementptr inbounds nuw i8, ptr %0, i64 8
  %81 = load i32, ptr %80, align 8, !tbaa !26
  %82 = and i32 %81, 136
  %.not78 = icmp eq i32 %82, 0
  %83 = select i1 %.not78, ptr @.str.12, ptr @.str.11
  tail call void @dt_conf_set_float(ptr noundef nonnull %83, float noundef %79) #13
  %84 = load float, ptr %4, align 4, !tbaa !27
  %85 = fadd reassoc nsz arcp contract afn float %84, %79
  store float %85, ptr %4, align 4, !tbaa !27
  %86 = load float, ptr %7, align 4, !tbaa !27
  %87 = fdiv reassoc nsz arcp contract afn float 1.000000e+00, %79
  %88 = tail call reassoc nsz arcp contract afn float @llvm.minnum.f32(float %86, float %87)
  store float %88, ptr %7, align 4, !tbaa !27
  %89 = load float, ptr %6, align 4, !tbaa !27
  %90 = fdiv reassoc nsz arcp contract afn float 0x3F40624DE0000000, %79
  %91 = tail call reassoc nsz arcp contract afn float @llvm.maxnum.f32(float %89, float %90)
  store float %91, ptr %6, align 4, !tbaa !27
  br label %.sink.split

92:                                               ; preds = %12
  %.not73 = icmp eq ptr %13, null
  br i1 %.not73, label %.thread82, label %102

.thread82:                                        ; preds = %92
  %93 = getelementptr inbounds nuw i8, ptr %0, i64 8
  %94 = load i32, ptr %93, align 8, !tbaa !26
  %95 = and i32 %94, 136
  %.not74 = icmp eq i32 %95, 0
  %96 = select i1 %.not74, ptr @.str.14, ptr @.str.13
  %97 = tail call reassoc nsz arcp contract afn float @dt_conf_get_float(ptr noundef nonnull %96) #13
  %98 = fadd reassoc nsz arcp contract afn float %2, 3.600000e+02
  %99 = fsub reassoc nsz arcp contract afn float %98, %3
  %100 = fadd reassoc nsz arcp contract afn float %99, %97
  %101 = frem reassoc nsz arcp contract afn float %100, 3.600000e+02
  br label %109

102:                                              ; preds = %92
  %103 = getelementptr inbounds nuw i8, ptr %13, i64 8
  %104 = load float, ptr %103, align 4, !tbaa !29
  %105 = fadd reassoc nsz arcp contract afn float %2, 3.600000e+02
  %106 = fsub reassoc nsz arcp contract afn float %105, %3
  %107 = fadd reassoc nsz arcp contract afn float %106, %104
  %108 = frem reassoc nsz arcp contract afn float %107, 3.600000e+02
  store float %108, ptr %103, align 4, !tbaa !29
  br label %109

109:                                              ; preds = %.thread82, %102
  %110 = phi float [ %101, %.thread82 ], [ %108, %102 ]
  %111 = getelementptr inbounds nuw i8, ptr %0, i64 8
  %112 = load i32, ptr %111, align 8, !tbaa !26
  %113 = and i32 %112, 136
  %.not75 = icmp eq i32 %113, 0
  %114 = select i1 %.not75, ptr @.str.14, ptr @.str.13
  tail call void @dt_conf_set_float(ptr noundef nonnull %114, float noundef %110) #13
  %115 = fsub reassoc nsz arcp contract afn float 3.600000e+02, %110
  %116 = load float, ptr %4, align 4, !tbaa !27
  %117 = fadd reassoc nsz arcp contract afn float %115, %116
  store float %117, ptr %4, align 4, !tbaa !27
  br label %.sink.split

.sink.split:                                      ; preds = %36, %78, %109
  %118 = load i32, ptr %5, align 4, !tbaa !30
  %119 = add nsw i32 %118, 1
  store i32 %119, ptr %5, align 4, !tbaa !30
  br label %120

120:                                              ; preds = %.sink.split, %12
  ret void
}